; Function Attrs: mustprogress uwtable
define noundef zeroext i1 @_ZNK4cvc58internal8TypeNode14isComparableToERKS1_(ptr noundef nonnull readonly align 8 captures(none) dereferenceable(8) %0, ptr noundef nonnull readonly align 8 captures(none) dereferenceable(8) %1) local_unnamed_addr #4 align 2 personality ptr @__gxx_personality_v0 {
  %3 = alloca %"class.cvc5::internal::TypeNode", align 8
  call void @llvm.lifetime.start.p0(i64 8, ptr nonnull %3) #24
  call void @_ZNK4cvc58internal8TypeNode13unifyInternalERKS1_b(ptr dead_on_unwind nonnull writable sret(%"class.cvc5::internal::TypeNode") align 8 %3, ptr noundef nonnull align 8 dereferenceable(8) %0, ptr noundef nonnull align 8 dereferenceable(8) %1, i1 noundef zeroext true)
  %4 = load ptr, ptr %3, align 8, !tbaa !3
  %5 = load atomic i8, ptr @_ZGVZN4cvc58internal4expr9NodeValue4nullEvE6s_null acquire, align 8
  %6 = icmp eq i8 %5, 0
  br i1 %6, label %7, label %14, !prof !206

7:                                                ; preds = %2
  %8 = call i32 @__cxa_guard_acquire(ptr nonnull @_ZGVZN4cvc58internal4expr9NodeValue4nullEvE6s_null) #24
  %.not.i.i = icmp eq i32 %8, 0
  br i1 %.not.i.i, label %14, label %9

9:                                                ; preds = %7
  %10 = invoke noalias noundef nonnull dereferenceable(24) ptr @_Znwm(i64 noundef 24) #26
          to label %11 unwind label %.body

11:                                               ; preds = %9
  store i64 1152920405095219200, ptr %10, align 8
  %12 = getelementptr inbounds nuw i8, ptr %10, i64 8
  call void @llvm.memset.p0.i64(ptr noundef nonnull align 8 dereferenceable(16) %12, i8 0, i64 16, i1 false)
  store ptr %10, ptr @_ZZN4cvc58internal4expr9NodeValue4nullEvE6s_null, align 8, !tbaa !32
  call void @__cxa_guard_release(ptr nonnull @_ZGVZN4cvc58internal4expr9NodeValue4nullEvE6s_null) #24
  br label %14

.body:                                            ; preds = %9
  %13 = landingpad { ptr, i32 }
          cleanup
  call void @__cxa_guard_abort(ptr nonnull @_ZGVZN4cvc58internal4expr9NodeValue4nullEvE6s_null) #24
  call void @_ZN4cvc58internal8TypeNodeD2Ev(ptr noundef nonnull align 8 dereferenceable(8) %3) #24
  call void @llvm.lifetime.end.p0(i64 8, ptr nonnull %3) #24
  resume { ptr, i32 } %13

14:                                               ; preds = %11, %7, %2
  %15 = load ptr, ptr @_ZZN4cvc58internal4expr9NodeValue4nullEvE6s_null, align 8, !tbaa !32
  %16 = load ptr, ptr %3, align 8, !tbaa !3
  %17 = load i64, ptr %16, align 8
  %18 = and i64 %17, 1152920405095219200
  %.not.i.i3 = icmp eq i64 %18, 1152920405095219200
  br i1 %.not.i.i3, label %_ZN4cvc58internal8TypeNodeD2Ev.exit, label %19, !prof !9

19:                                               ; preds = %14
  %20 = add i64 %17, 1152920405095219200
  %21 = and i64 %20, 1152920405095219200
  %22 = and i64 %17, -1152920405095219201
  %23 = or disjoint i64 %21, %22
  store i64 %23, ptr %16, align 8
  %24 = icmp eq i64 %21, 0
  br i1 %24, label %25, label %_ZN4cvc58internal8TypeNodeD2Ev.exit, !prof !9

25:                                               ; preds = %19
  invoke void @_ZN4cvc58internal4expr9NodeValue15markForDeletionEv(ptr noundef nonnull align 8 dereferenceable(24) %16)
          to label %_ZN4cvc58internal8TypeNodeD2Ev.exit unwind label %26

26:                                               ; preds = %25
  %27 = landingpad { ptr, i32 }
          catch ptr null
  %28 = extractvalue { ptr, i32 } %27, 0
  call void @__clang_call_terminate(ptr %28) #23
  unreachable

_ZN4cvc58internal8TypeNodeD2Ev.exit:              ; preds = %14, %19, %25
  %29 = icmp ne ptr %4, %15
  call void @llvm.lifetime.end.p0(i64 8, ptr nonnull %3) #24
  ret i1 %29
}